; Function Attrs: nounwind uwtable
define dso_local i32 @jobacct_gather_endpoll() local_unnamed_addr #0 {
  %1 = load i32, ptr @plugin_inited, align 4
  %2 = icmp eq i32 %1, 1
  br i1 %2, label %24, label %3

3:                                                ; preds = %0
  %4 = tail call i32 @pthread_mutex_lock(ptr noundef nonnull @jobacct_shutdown_mutex) #10
  %.not = icmp eq i32 %4, 0
  br i1 %.not, label %7, label %5

5:                                                ; preds = %3
  %6 = tail call ptr @__errno_location() #11
  store i32 %4, ptr %6, align 4
  tail call void (ptr, ...) @fatal_abort(ptr noundef nonnull @.str.1, ptr noundef nonnull @__func__.jobacct_gather_endpoll) #12
  unreachable

7:                                                ; preds = %3
  store i1 false, ptr @jobacct_shutdown, align 1
  %8 = tail call i32 @pthread_mutex_unlock(ptr noundef nonnull @jobacct_shutdown_mutex) #10
  %.not15 = icmp eq i32 %8, 0
  br i1 %.not15, label %11, label %9

9:                                                ; preds = %7
  %10 = tail call ptr @__errno_location() #11
  store i32 %8, ptr %10, align 4
  tail call void (ptr, ...) @fatal_abort(ptr noundef nonnull @.str.3, ptr noundef nonnull @__func__.jobacct_gather_endpoll) #12
  unreachable

11:                                               ; preds = %7
  %12 = tail call i32 @pthread_mutex_lock(ptr noundef nonnull @task_list_lock) #10
  %.not16 = icmp eq i32 %12, 0
  br i1 %.not16, label %15, label %13

13:                                               ; preds = %11
  %14 = tail call ptr @__errno_location() #11
  store i32 %12, ptr %14, align 4
  tail call void (ptr, ...) @fatal_abort(ptr noundef nonnull @.str.1, ptr noundef nonnull @__func__.jobacct_gather_endpoll) #12
  unreachable

15:                                               ; preds = %11
  %16 = load ptr, ptr @task_list, align 8
  %.not17 = icmp eq ptr %16, null
  br i1 %.not17, label %18, label %17

17:                                               ; preds = %15
  tail call void @list_destroy(ptr noundef nonnull %16) #10
  br label %18

18:                                               ; preds = %17, %15
  store ptr null, ptr @task_list, align 8
  %19 = load ptr, ptr getelementptr inbounds nuw (i8, ptr @ops, i64 8), align 8
  %20 = tail call i32 (...) %19() #10
  %21 = tail call i32 @pthread_mutex_unlock(ptr noundef nonnull @task_list_lock) #10
  %.not18 = icmp eq i32 %21, 0
  br i1 %.not18, label %24, label %22

22:                                               ; preds = %18
  %23 = tail call ptr @__errno_location() #11
  store i32 %21, ptr %23, align 4
  tail call void (ptr, ...) @fatal_abort(ptr noundef nonnull @.str.3, ptr noundef nonnull @__func__.jobacct_gather_endpoll) #12
  unreachable

24:                                               ; preds = %18, %0
  %.0 = phi i32 [ 0, %0 ], [ %20, %18 ]
  ret i32 %.0
}